target datalayout = "e-m:e-p270:32:32-p271:32:32-p272:64:64-i64:64-i128:128-f80:128-n8:16:32:64-S128"
target triple = "x86_64-pc-linux-gnu"

%struct._wmem_tree_key_t = type { i32, ptr }

; Function Attrs: null_pointer_is_valid sspstrong uwtable
define void @wmem_tree_insert32(ptr noundef %0, i32 noundef %1, ptr noundef %2) #0 {
  %4 = alloca ptr, align 8
  %5 = alloca i32, align 4
  %6 = alloca ptr, align 8
  store ptr %0, ptr %4, align 8
  store i32 %1, ptr %5, align 4
  store ptr %2, ptr %6, align 8
  %7 = load ptr, ptr %4, align 8
  %8 = load i32, ptr %5, align 4
  %9 = load ptr, ptr %6, align 8
  %10 = call ptr @lookup_or_insert32(ptr noundef %7, i32 noundef %8, ptr noundef null, ptr noundef %9, i1 noundef zeroext false, i1 noundef zeroext true)
  ret void
}

; Function Attrs: null_pointer_is_valid sspstrong uwtable
define void @wmem_tree_insert32_array(ptr noundef %0, ptr noundef %1, ptr noundef %2) #0 {
  %4 = alloca ptr, align 8
  %5 = alloca ptr, align 8
  %6 = alloca ptr, align 8
  %7 = alloca ptr, align 8
  %8 = alloca ptr, align 8
  %9 = alloca i32, align 4
  %10 = alloca i32, align 4
  store ptr %0, ptr %4, align 8
  store ptr %1, ptr %5, align 8
  store ptr %2, ptr %6, align 8
  call void @llvm.lifetime.start.p0(i64 8, ptr %7) #6
  store ptr null, ptr %7, align 8
  call void @llvm.lifetime.start.p0(i64 8, ptr %8) #6
  call void @llvm.lifetime.start.p0(i64 4, ptr %9) #6
  call void @llvm.lifetime.start.p0(i64 4, ptr %10) #6
  store i32 0, ptr %10, align 4
  %11 = load ptr, ptr %5, align 8
  store ptr %11, ptr %8, align 8
  br label %12

12:                                               ; preds = %46, %3
  %13 = load ptr, ptr %8, align 8
  %14 = getelementptr inbounds nuw %struct._wmem_tree_key_t, ptr %13, i32 0, i32 0
  %15 = load i32, ptr %14, align 8
  %16 = icmp ugt i32 %15, 0
  br i1 %16, label %17, label %49

17:                                               ; preds = %12
  store i32 0, ptr %9, align 4
  br label %18

18:                                               ; preds = %42, %17
  %19 = load i32, ptr %9, align 4
  %20 = load ptr, ptr %8, align 8
  %21 = getelementptr inbounds nuw %struct._wmem_tree_key_t, ptr %20, i32 0, i32 0
  %22 = load i32, ptr %21, align 8
  %23 = icmp ult i32 %19, %22
  br i1 %23, label %24, label %45

24:                                               ; preds = %18
  %25 = load ptr, ptr %7, align 8
  %26 = icmp ne ptr %25, null
  br i1 %26, label %29, label %27

27:                                               ; preds = %24
  %28 = load ptr, ptr %4, align 8
  store ptr %28, ptr %7, align 8
  br label %34

29:                                               ; preds = %24
  %30 = load ptr, ptr %7, align 8
  %31 = load i32, ptr %10, align 4
  %32 = load ptr, ptr %4, align 8
  %33 = call ptr @lookup_or_insert32(ptr noundef %30, i32 noundef %31, ptr noundef @create_sub_tree, ptr noundef %32, i1 noundef zeroext true, i1 noundef zeroext false)
  store ptr %33, ptr %7, align 8
  br label %34

34:                                               ; preds = %29, %27
  %35 = load ptr, ptr %8, align 8
  %36 = getelementptr inbounds nuw %struct._wmem_tree_key_t, ptr %35, i32 0, i32 1
  %37 = load ptr, ptr %36, align 8
  %38 = load i32, ptr %9, align 4
  %39 = zext i32 %38 to i64
  %40 = getelementptr i32, ptr %37, i64 %39
  %41 = load i32, ptr %40, align 4
  store i32 %41, ptr %10, align 4
  br label %42

42:                                               ; preds = %34
  %43 = load i32, ptr %9, align 4
  %44 = add i32 %43, 1
  store i32 %44, ptr %9, align 4
  br label %18, !llvm.loop !18

45:                                               ; preds = %18
  br label %46

46:                                               ; preds = %45
  %47 = load ptr, ptr %8, align 8
  %48 = getelementptr %struct._wmem_tree_key_t, ptr %47, i32 1
  store ptr %48, ptr %8, align 8
  br label %12, !llvm.loop !19

49:                                               ; preds = %12
  br label %50

50:                                               ; preds = %49
  br label %51

51:                                               ; preds = %50
  br label %52

52:                                               ; preds = %51
  %53 = load ptr, ptr %7, align 8
  %54 = load i32, ptr %10, align 4
  %55 = load ptr, ptr %6, align 8
  call void @wmem_tree_insert32(ptr noundef %53, i32 noundef %54, ptr noundef %55)
  call void @llvm.lifetime.end.p0(i64 4, ptr %10) #6
  call void @llvm.lifetime.end.p0(i64 4, ptr %9) #6
  call void @llvm.lifetime.end.p0(i64 8, ptr %8) #6
  call void @llvm.lifetime.end.p0(i64 8, ptr %7) #6
  ret void
}