; Function Attrs: null_pointer_is_valid sspstrong uwtable
define void @wmem_tree_insert32_array(ptr noundef captures(address) %0, ptr noundef readonly captures(none) %1, ptr noundef %2) local_unnamed_addr #0 {
  %4 = load i32, ptr %1, align 8
  %.not25 = icmp eq i32 %4, 0
  br i1 %.not25, label %._crit_edge29, label %.preheader.lr.ph

.preheader.lr.ph:                                 ; preds = %3
  %5 = getelementptr inbounds nuw i8, ptr %0, i64 8
  br label %.lr.ph

.lr.ph:                                           ; preds = %._crit_edge, %.preheader.lr.ph
  %6 = phi i32 [ %4, %.preheader.lr.ph ], [ %77, %._crit_edge ]
  %.028 = phi i32 [ 0, %.preheader.lr.ph ], [ %73, %._crit_edge ]
  %.01627 = phi ptr [ %1, %.preheader.lr.ph ], [ %76, %._crit_edge ]
  %.01726 = phi ptr [ null, %.preheader.lr.ph ], [ %.2, %._crit_edge ]
  %7 = getelementptr inbounds nuw i8, ptr %.01627, i64 8
  br label %8

8:                                                ; preds = %.lr.ph, %69
  %9 = phi i32 [ %6, %.lr.ph ], [ %70, %69 ]
  %indvars.iv = phi i64 [ 0, %.lr.ph ], [ %indvars.iv.next, %69 ]
  %.123 = phi i32 [ %.028, %.lr.ph ], [ %73, %69 ]
  %.11821 = phi ptr [ %.01726, %.lr.ph ], [ %.2, %69 ]
  %.not19 = icmp eq ptr %.11821, null
  br i1 %.not19, label %69, label %10

10:                                               ; preds = %8
  %11 = getelementptr inbounds nuw i8, ptr %.11821, i64 16
  %12 = load ptr, ptr %11, align 8
  %.not.i.i = icmp eq ptr %12, null
  %13 = getelementptr inbounds nuw i8, ptr %.11821, i64 8
  br i1 %.not.i.i, label %16, label %.preheader.i.i

.preheader.i.i:                                   ; preds = %10
  %14 = zext i32 %.123 to i64
  %15 = inttoptr i64 %14 to ptr
  br label %.preheader.split.split.i.i

16:                                               ; preds = %10
  %17 = load ptr, ptr %13, align 8
  %18 = zext i32 %.123 to i64
  %19 = inttoptr i64 %18 to ptr
  %20 = load ptr, ptr %5, align 8
  %21 = tail call noalias noundef dereferenceable_or_null(40) ptr @wmem_alloc0(ptr noundef %20, i64 noundef 40) #10
  store ptr %20, ptr %21, align 8
  %22 = getelementptr inbounds nuw i8, ptr %21, i64 8
  store ptr %20, ptr %22, align 8
  %23 = tail call noalias dereferenceable_or_null(48) ptr @wmem_alloc(ptr noundef %17, i64 noundef 48) #10
  %24 = getelementptr inbounds nuw i8, ptr %23, i64 24
  tail call void @llvm.memset.p0.i64(ptr noundef align 8 dereferenceable(24) %23, i8 0, i64 24, i1 false)
  store ptr %19, ptr %24, align 8
  %25 = getelementptr inbounds nuw i8, ptr %23, i64 32
  store ptr %21, ptr %25, align 8
  %26 = getelementptr inbounds nuw i8, ptr %23, i64 40
  store i32 1, ptr %26, align 8
  %27 = getelementptr inbounds nuw i8, ptr %23, i64 44
  store i8 1, ptr %27, align 4
  %28 = getelementptr inbounds nuw i8, ptr %23, i64 45
  store i8 0, ptr %28, align 1
  store ptr %23, ptr %11, align 8
  br label %lookup_or_insert32.exit

.preheader.split.split.i.i:                       ; preds = %66, %.preheader.i.i
  %.05372.i.i = phi ptr [ %.154.i.i, %66 ], [ %12, %.preheader.i.i ]
  %29 = getelementptr inbounds nuw i8, ptr %.05372.i.i, i64 24
  %30 = load ptr, ptr %29, align 8
  %31 = ptrtoint ptr %30 to i64
  %32 = trunc i64 %31 to i32
  %33 = icmp eq i32 %.123, %32
  br i1 %33, label %lookup_or_insert32.exit, label %34

34:                                               ; preds = %.preheader.split.split.i.i
  %35 = icmp ult i32 %.123, %32
  br i1 %35, label %36, label %51

36:                                               ; preds = %34
  %37 = getelementptr inbounds nuw i8, ptr %.05372.i.i, i64 8
  %38 = load ptr, ptr %37, align 8
  %.not67.i.i = icmp eq ptr %38, null
  br i1 %.not67.i.i, label %39, label %66

39:                                               ; preds = %36
  %40 = load ptr, ptr %13, align 8
  %41 = load ptr, ptr %5, align 8
  %42 = tail call noalias noundef dereferenceable_or_null(40) ptr @wmem_alloc0(ptr noundef %41, i64 noundef 40) #10
  store ptr %41, ptr %42, align 8
  %43 = getelementptr inbounds nuw i8, ptr %42, i64 8
  store ptr %41, ptr %43, align 8
  %44 = tail call noalias dereferenceable_or_null(48) ptr @wmem_alloc(ptr noundef %40, i64 noundef 48) #10
  %45 = getelementptr inbounds nuw i8, ptr %44, i64 8
  tail call void @llvm.memset.p0.i64(ptr noundef nonnull align 8 dereferenceable(16) %45, i8 0, i64 16, i1 false)
  store ptr %.05372.i.i, ptr %44, align 8
  %46 = getelementptr inbounds nuw i8, ptr %44, i64 24
  store ptr %15, ptr %46, align 8
  %47 = getelementptr inbounds nuw i8, ptr %44, i64 32
  store ptr %42, ptr %47, align 8
  %48 = getelementptr inbounds nuw i8, ptr %44, i64 40
  store i32 0, ptr %48, align 8
  %49 = getelementptr inbounds nuw i8, ptr %44, i64 44
  store i8 1, ptr %49, align 4
  %50 = getelementptr inbounds nuw i8, ptr %44, i64 45
  store i8 0, ptr %50, align 1
  store ptr %44, ptr %37, align 8
  br label %66

51:                                               ; preds = %34
  %52 = getelementptr inbounds nuw i8, ptr %.05372.i.i, i64 16
  %53 = load ptr, ptr %52, align 8
  %.not65.i.i = icmp eq ptr %53, null
  br i1 %.not65.i.i, label %54, label %66

54:                                               ; preds = %51
  %55 = load ptr, ptr %13, align 8
  %56 = load ptr, ptr %5, align 8
  %57 = tail call noalias noundef dereferenceable_or_null(40) ptr @wmem_alloc0(ptr noundef %56, i64 noundef 40) #10
  store ptr %56, ptr %57, align 8
  %58 = getelementptr inbounds nuw i8, ptr %57, i64 8
  store ptr %56, ptr %58, align 8
  %59 = tail call noalias dereferenceable_or_null(48) ptr @wmem_alloc(ptr noundef %55, i64 noundef 48) #10
  %60 = getelementptr inbounds nuw i8, ptr %59, i64 8
  tail call void @llvm.memset.p0.i64(ptr noundef nonnull align 8 dereferenceable(16) %60, i8 0, i64 16, i1 false)
  store ptr %.05372.i.i, ptr %59, align 8
  %61 = getelementptr inbounds nuw i8, ptr %59, i64 24
  store ptr %15, ptr %61, align 8
  %62 = getelementptr inbounds nuw i8, ptr %59, i64 32
  store ptr %57, ptr %62, align 8
  %63 = getelementptr inbounds nuw i8, ptr %59, i64 40
  store i32 0, ptr %63, align 8
  %64 = getelementptr inbounds nuw i8, ptr %59, i64 44
  store i8 1, ptr %64, align 4
  %65 = getelementptr inbounds nuw i8, ptr %59, i64 45
  store i8 0, ptr %65, align 1
  store ptr %59, ptr %52, align 8
  br label %66

66:                                               ; preds = %54, %51, %39, %36
  %.154.i.i = phi ptr [ %.05372.i.i, %39 ], [ %.05372.i.i, %54 ], [ %38, %36 ], [ %53, %51 ]
  %.1.i.i = phi ptr [ %44, %39 ], [ %59, %54 ], [ null, %36 ], [ null, %51 ]
  %.not64.i.i = icmp eq ptr %.1.i.i, null
  br i1 %.not64.i.i, label %.preheader.split.split.i.i, label %.split74.us.i.i, !llvm.loop !10

.split74.us.i.i:                                  ; preds = %66
  tail call fastcc void @rb_insert_case1(ptr noundef nonnull %.11821, ptr noundef nonnull %.1.i.i)
  br label %lookup_or_insert32.exit

lookup_or_insert32.exit:                          ; preds = %.preheader.split.split.i.i, %16, %.split74.us.i.i
  %.055.i.i = phi ptr [ %.1.i.i, %.split74.us.i.i ], [ %23, %16 ], [ %.05372.i.i, %.preheader.split.split.i.i ]
  %67 = getelementptr inbounds nuw i8, ptr %.055.i.i, i64 32
  %68 = load ptr, ptr %67, align 8
  %.pre = load i32, ptr %.01627, align 8
  br label %69

69:                                               ; preds = %8, %lookup_or_insert32.exit
  %70 = phi i32 [ %.pre, %lookup_or_insert32.exit ], [ %9, %8 ]
  %.2 = phi ptr [ %68, %lookup_or_insert32.exit ], [ %0, %8 ]
  %71 = load ptr, ptr %7, align 8
  %72 = getelementptr i32, ptr %71, i64 %indvars.iv
  %73 = load i32, ptr %72, align 4
  %indvars.iv.next = add nuw nsw i64 %indvars.iv, 1
  %74 = zext i32 %70 to i64
  %75 = icmp samesign ult i64 %indvars.iv.next, %74
  br i1 %75, label %8, label %._crit_edge, !llvm.loop !20

._crit_edge:                                      ; preds = %69
  %76 = getelementptr i8, ptr %.01627, i64 16
  %77 = load i32, ptr %76, align 8
  %.not = icmp eq i32 %77, 0
  br i1 %.not, label %._crit_edge29, label %.lr.ph, !llvm.loop !21

._crit_edge29:                                    ; preds = %._crit_edge, %3
  %.017.lcssa = phi ptr [ null, %3 ], [ %.2, %._crit_edge ]
  %.0.lcssa = phi i32 [ 0, %3 ], [ %73, %._crit_edge ]
  tail call fastcc void @lookup_or_insert32(ptr noundef %.017.lcssa, i32 noundef %.0.lcssa, ptr noundef null, ptr noundef %2, i1 noundef zeroext false, i1 noundef zeroext true)
  ret void
}